target datalayout = "e-m:e-p270:32:32-p271:32:32-p272:64:64-i64:64-i128:128-f80:128-n8:16:32:64-S128"
target triple = "x86_64-pc-linux-gnu"

%struct.__sigset_t = type { [16 x i64] }
%struct.rb_vm_struct = type { i64, %struct.anon, ptr, i64, %struct.ccan_list_head, i32, i8, i64, ptr, [5 x i64], i64, i64, i64, i64, i64, i64, i64, i64, i64, ptr, ptr, ptr, %struct.anon.3, ptr, i32, %struct.ccan_list_head, %union.pthread_mutex_t, i64, i64, i64, i64, i32, %struct.anon.4, ptr, ptr, ptr, ptr, ptr, ptr, ptr, ptr, i64, [1023 x ptr], %struct.anon.5 }
%struct.anon = type { %struct.ccan_list_head, i32, i32, ptr, ptr, %struct.anon.0, %struct.anon.2 }
%struct.anon.0 = type { %union.pthread_mutex_t, ptr, i32, %union.pthread_cond_t, i8 }
%union.pthread_cond_t = type { %struct.__pthread_cond_s }
%struct.__pthread_cond_s = type { %union.__atomic_wide_counter, %union.__atomic_wide_counter, [2 x i32], [2 x i32], i32, i32, [2 x i32] }
%union.__atomic_wide_counter = type { i64 }
%struct.anon.2 = type { %union.pthread_mutex_t, ptr, i8, %union.pthread_cond_t, i32, i32, i32, i32, %struct.ccan_list_head, i32, %struct.ccan_list_head, %struct.ccan_list_head, %struct.ccan_list_head, i8, %union.pthread_cond_t, %union.pthread_cond_t, i8, i32, i32 }
%struct.anon.3 = type { [65 x i64] }
%struct.ccan_list_head = type { %struct.ccan_list_node }
%struct.ccan_list_node = type { ptr, ptr }
%union.pthread_mutex_t = type { %struct.__pthread_mutex_s }
%struct.__pthread_mutex_s = type { i32, i32, i32, i32, i32, i16, i16, %struct.__pthread_internal_list }
%struct.__pthread_internal_list = type { ptr, ptr }
%struct.anon.4 = type { ptr, ptr }
%struct.anon.5 = type { i64, i64, i64, i64 }
%struct.rb_vm_tag = type { i64, i64, [5 x ptr], ptr, i32, i32 }
%struct.rb_execution_context_struct = type { ptr, i64, ptr, ptr, i32, i32, ptr, ptr, ptr, i64, i64, i64, ptr, i64, ptr, i64, i64, i8, i8, i64, %struct.anon.7 }
%struct.anon.7 = type { ptr, ptr, i64, [1 x %struct.__jmp_buf_tag] }
%struct.__jmp_buf_tag = type { [8 x i64], i32, %struct.__sigset_t }
%struct.rb_thread_struct = type { %struct.ccan_list_node, i64, ptr, ptr, ptr, ptr, %struct.rb_thread_sched_item, i8, i32, i64, ptr, i64, i64, i8, i8, i32, ptr, i64, i64, i64, i64, %union.pthread_mutex_t, %struct.rb_unblock_callback, i64, ptr, %struct.ccan_list_head, ptr, %union.anon, i32, i64, ptr, i64, i32, i64, ptr, %struct.rb_ext_config }
%struct.rb_thread_sched_item = type { %struct.anon.8, %struct.rb_thread_sched_waiting, i8, i8, ptr, ptr }
%struct.anon.8 = type { %struct.ccan_list_node, %struct.ccan_list_node, %struct.ccan_list_node, %struct.ccan_list_node, %struct.ccan_list_node }
%struct.rb_thread_sched_waiting = type { i32, %struct.anon.9, %struct.ccan_list_node }
%struct.anon.9 = type { i64, i32, i32 }
%struct.rb_unblock_callback = type { ptr, ptr }
%union.anon = type { %struct.anon.10 }
%struct.anon.10 = type { i64, i64, i32 }
%struct.rb_ext_config = type { i8 }

@ruby_current_ec = external thread_local global ptr, align 8

; Function Attrs: inlinehint nounwind sspstrong uwtable
define internal ptr @rb_ec_thread_ptr(ptr noundef %0) #5 {
  %2 = alloca ptr, align 8
  store ptr %0, ptr %2, align 8, !tbaa !56
  %3 = load ptr, ptr %2, align 8, !tbaa !56
  %4 = getelementptr inbounds nuw %struct.rb_execution_context_struct, ptr %3, i32 0, i32 7
  %5 = load ptr, ptr %4, align 8, !tbaa !93
  ret ptr %5
}

; Function Attrs: inlinehint nounwind sspstrong willreturn memory(none) uwtable
define internal i64 @RB_INT2FIX(i64 noundef %0) #6 {
  %2 = alloca i64, align 8
  %3 = alloca i64, align 8
  %4 = alloca i64, align 8
  %5 = alloca i64, align 8
  %6 = alloca i64, align 8
  %7 = alloca i64, align 8
  store i64 %0, ptr %2, align 8, !tbaa !22
  call void @llvm.lifetime.start.p0(i64 8, ptr %3) #22
  %8 = load i64, ptr %2, align 8, !tbaa !22
  store i64 %8, ptr %3, align 8, !tbaa !22
  call void @llvm.lifetime.start.p0(i64 8, ptr %4) #22
  %9 = load i64, ptr %3, align 8, !tbaa !22
  %10 = shl i64 %9, 1
  %11 = add i64 %10, 1
  store i64 %11, ptr %4, align 8, !tbaa !22
  call void @llvm.lifetime.start.p0(i64 8, ptr %5) #22
  %12 = load i64, ptr %4, align 8, !tbaa !22
  store i64 %12, ptr %5, align 8, !tbaa !22
  call void @llvm.lifetime.start.p0(i64 8, ptr %6) #22
  %13 = load i64, ptr %5, align 8, !tbaa !22
  store i64 %13, ptr %6, align 8, !tbaa !22
  call void @llvm.lifetime.start.p0(i64 8, ptr %7) #22
  %14 = load i64, ptr %6, align 8, !tbaa !22
  store i64 %14, ptr %7, align 8, !tbaa !22
  %15 = load i64, ptr %7, align 8, !tbaa !22
  call void @llvm.lifetime.end.p0(i64 8, ptr %7) #22
  call void @llvm.lifetime.end.p0(i64 8, ptr %6) #22
  call void @llvm.lifetime.end.p0(i64 8, ptr %5) #22
  call void @llvm.lifetime.end.p0(i64 8, ptr %4) #22
  call void @llvm.lifetime.end.p0(i64 8, ptr %3) #22
  ret i64 %15
}

; Function Attrs: inlinehint nounwind sspstrong uwtable
define internal ptr @rb_ec_ractor_ptr(ptr noundef %0) #5 {
  %2 = alloca ptr, align 8
  %3 = alloca ptr, align 8
  %4 = alloca ptr, align 8
  %5 = alloca i32, align 4
  store ptr %0, ptr %3, align 8, !tbaa !56
  call void @llvm.lifetime.start.p0(i64 8, ptr %4) #22
  %6 = load ptr, ptr %3, align 8, !tbaa !56
  %7 = call ptr @rb_ec_thread_ptr(ptr noundef %6)
  store ptr %7, ptr %4, align 8, !tbaa !85
  %8 = load ptr, ptr %4, align 8, !tbaa !85
  %9 = icmp ne ptr %8, null
  br i1 %9, label %10, label %14

10:                                               ; preds = %1
  %11 = load ptr, ptr %4, align 8, !tbaa !85
  %12 = getelementptr inbounds nuw %struct.rb_thread_struct, ptr %11, i32 0, i32 2
  %13 = load ptr, ptr %12, align 8, !tbaa !110
  store ptr %13, ptr %2, align 8
  store i32 1, ptr %5, align 4
  br label %15

14:                                               ; preds = %1
  store ptr null, ptr %2, align 8
  store i32 1, ptr %5, align 4
  br label %15

15:                                               ; preds = %14, %10
  call void @llvm.lifetime.end.p0(i64 8, ptr %4) #22
  %16 = load ptr, ptr %2, align 8
  ret ptr %16
}

; Function Attrs: inlinehint nounwind sspstrong uwtable
define internal ptr @rb_ec_vm_ptr(ptr noundef %0) #5 {
  %2 = alloca ptr, align 8
  %3 = alloca ptr, align 8
  %4 = alloca ptr, align 8
  %5 = alloca i32, align 4
  store ptr %0, ptr %3, align 8, !tbaa !56
  call void @llvm.lifetime.start.p0(i64 8, ptr %4) #22
  %6 = load ptr, ptr %3, align 8, !tbaa !56
  %7 = call ptr @rb_ec_thread_ptr(ptr noundef %6)
  store ptr %7, ptr %4, align 8, !tbaa !85
  %8 = load ptr, ptr %4, align 8, !tbaa !85
  %9 = icmp ne ptr %8, null
  br i1 %9, label %10, label %14

10:                                               ; preds = %1
  %11 = load ptr, ptr %4, align 8, !tbaa !85
  %12 = getelementptr inbounds nuw %struct.rb_thread_struct, ptr %11, i32 0, i32 3
  %13 = load ptr, ptr %12, align 8, !tbaa !97
  store ptr %13, ptr %2, align 8
  store i32 1, ptr %5, align 4
  br label %15

14:                                               ; preds = %1
  store ptr null, ptr %2, align 8
  store i32 1, ptr %5, align 4
  br label %15

15:                                               ; preds = %14, %10
  call void @llvm.lifetime.end.p0(i64 8, ptr %4) #22
  %16 = load ptr, ptr %2, align 8
  ret ptr %16
}

; Function Attrs: inlinehint noreturn nounwind sspstrong uwtable
define internal void @rb_ec_tag_jump(ptr noundef %0, i32 noundef %1) #23 {
  %3 = alloca ptr, align 8
  %4 = alloca i32, align 4
  store ptr %0, ptr %3, align 8, !tbaa !56
  store i32 %1, ptr %4, align 4, !tbaa !7
  %5 = load i32, ptr %4, align 4, !tbaa !7
  %6 = load ptr, ptr %3, align 8, !tbaa !56
  %7 = getelementptr inbounds nuw %struct.rb_execution_context_struct, ptr %6, i32 0, i32 3
  %8 = load ptr, ptr %7, align 8, !tbaa !82
  %9 = getelementptr inbounds nuw %struct.rb_vm_tag, ptr %8, i32 0, i32 4
  store i32 %5, ptr %9, align 8, !tbaa !79
  %10 = load ptr, ptr %3, align 8, !tbaa !56
  %11 = getelementptr inbounds nuw %struct.rb_execution_context_struct, ptr %10, i32 0, i32 3
  %12 = load ptr, ptr %11, align 8, !tbaa !82
  %13 = getelementptr inbounds nuw %struct.rb_vm_tag, ptr %12, i32 0, i32 2
  %14 = getelementptr inbounds [5 x ptr], ptr %13, i64 0, i64 0
  call void @llvm.eh.sjlj.longjmp(ptr %14)
  unreachable
}

; Function Attrs: inlinehint nounwind sspstrong uwtable
define internal void @rb_vm_tag_jmpbuf_deinit(ptr noundef %0) #5 {
  %2 = alloca ptr, align 8
  store ptr %0, ptr %2, align 8, !tbaa !61
  ret void
}

; Function Attrs: inlinehint nounwind sspstrong uwtable
define internal i64 @rb_int2num_inline(i32 noundef %0) #5 {
  %2 = alloca i64, align 8
  %3 = alloca i32, align 4
  store i32 %0, ptr %3, align 4, !tbaa !7
  %4 = load i32, ptr %3, align 4, !tbaa !7
  %5 = sext i32 %4 to i64
  %6 = icmp slt i64 %5, 4611686018427387904
  br i1 %6, label %7, label %15

7:                                                ; preds = %1
  %8 = load i32, ptr %3, align 4, !tbaa !7
  %9 = sext i32 %8 to i64
  %10 = icmp sge i64 %9, -4611686018427387904
  br i1 %10, label %11, label %15

11:                                               ; preds = %7
  %12 = load i32, ptr %3, align 4, !tbaa !7
  %13 = sext i32 %12 to i64
  %14 = call i64 @RB_INT2FIX(i64 noundef %13) #28
  store i64 %14, ptr %2, align 8
  br label %19

15:                                               ; preds = %7, %1
  %16 = load i32, ptr %3, align 4, !tbaa !7
  %17 = sext i32 %16 to i64
  %18 = call i64 @rb_int2big(i64 noundef %17)
  store i64 %18, ptr %2, align 8
  br label %19

19:                                               ; preds = %15, %11
  %20 = load i64, ptr %2, align 8
  ret i64 %20
}

; Function Attrs: inlinehint nounwind sspstrong uwtable
define internal void @rb_vm_tag_jmpbuf_init(ptr noundef %0) #5 {
  %2 = alloca ptr, align 8
  store ptr %0, ptr %2, align 8, !tbaa !61
  ret void
}

; Function Attrs: inlinehint nounwind sspstrong uwtable
define internal i32 @rb_ec_vm_lock_rec(ptr noundef %0) #5 {
  %2 = alloca i32, align 4
  %3 = alloca ptr, align 8
  %4 = alloca ptr, align 8
  %5 = alloca i32, align 4
  store ptr %0, ptr %3, align 8, !tbaa !56
  call void @llvm.lifetime.start.p0(i64 8, ptr %4) #22
  %6 = load ptr, ptr %3, align 8, !tbaa !56
  %7 = call ptr @rb_ec_vm_ptr(ptr noundef %6)
  store ptr %7, ptr %4, align 8, !tbaa !58
  %8 = load ptr, ptr %4, align 8, !tbaa !58
  %9 = getelementptr inbounds nuw %struct.rb_vm_struct, ptr %8, i32 0, i32 1
  %10 = getelementptr inbounds nuw %struct.anon, ptr %9, i32 0, i32 5
  %11 = getelementptr inbounds nuw %struct.anon.0, ptr %10, i32 0, i32 1
  %12 = load ptr, ptr %11, align 8, !tbaa !94
  %13 = load ptr, ptr %3, align 8, !tbaa !56
  %14 = call ptr @rb_ec_ractor_ptr(ptr noundef %13)
  %15 = icmp ne ptr %12, %14
  br i1 %15, label %16, label %17

16:                                               ; preds = %1
  store i32 0, ptr %2, align 4
  store i32 1, ptr %5, align 4
  br label %23

17:                                               ; preds = %1
  %18 = load ptr, ptr %4, align 8, !tbaa !58
  %19 = getelementptr inbounds nuw %struct.rb_vm_struct, ptr %18, i32 0, i32 1
  %20 = getelementptr inbounds nuw %struct.anon, ptr %19, i32 0, i32 5
  %21 = getelementptr inbounds nuw %struct.anon.0, ptr %20, i32 0, i32 2
  %22 = load i32, ptr %21, align 8, !tbaa !95
  store i32 %22, ptr %2, align 4
  store i32 1, ptr %5, align 4
  br label %23

23:                                               ; preds = %17, %16
  call void @llvm.lifetime.end.p0(i64 8, ptr %4) #22
  %24 = load i32, ptr %2, align 4
  ret i32 %24
}

; Function Attrs: inlinehint nounwind sspstrong willreturn memory(none) uwtable
define internal zeroext i1 @RB_IMMEDIATE_P(i64 noundef %0) #6 {
  %2 = alloca i64, align 8
  store i64 %0, ptr %2, align 8, !tbaa !22
  %3 = load i64, ptr %2, align 8, !tbaa !22
  %4 = and i64 %3, 7
  %5 = icmp ne i64 %4, 0
  ret i1 %5
}

; Function Attrs: inlinehint nounwind sspstrong uwtable
define internal ptr @rb_current_execution_context(i1 noundef zeroext %0) #5 {
  %2 = alloca i8, align 1
  %3 = alloca ptr, align 8
  %4 = zext i1 %0 to i8
  store i8 %4, ptr %2, align 1, !tbaa !92
  call void @llvm.lifetime.start.p0(i64 8, ptr %3) #22
  %5 = call align 8 ptr @llvm.threadlocal.address.p0(ptr align 8 @ruby_current_ec)
  %6 = load ptr, ptr %5, align 8, !tbaa !56
  store ptr %6, ptr %3, align 8, !tbaa !56
  %7 = load ptr, ptr %3, align 8, !tbaa !56
  call void @llvm.lifetime.end.p0(i64 8, ptr %3) #22
  ret ptr %7
}

; Function Attrs: nounwind sspstrong uwtable
define internal i32 @signal_exec(i64 noundef %0, i32 noundef %1) #1 {
  %3 = alloca i32, align 4
  %4 = alloca i64, align 8
  %5 = alloca i32, align 4
  %6 = alloca ptr, align 8
  %7 = alloca i32, align 4
  %8 = alloca i32, align 4
  %9 = alloca i32, align 4
  %10 = alloca ptr, align 8
  %11 = alloca %struct.rb_vm_tag, align 8
  %12 = alloca i64, align 8
  store i64 %0, ptr %4, align 8, !tbaa !22
  store i32 %1, ptr %5, align 4, !tbaa !7
  call void @llvm.lifetime.start.p0(i64 8, ptr %6) #22
  %13 = call ptr @rb_current_execution_context(i1 noundef zeroext true)
  store ptr %13, ptr %6, align 8, !tbaa !56
  call void @llvm.lifetime.start.p0(i64 4, ptr %7) #22
  %14 = load ptr, ptr %6, align 8, !tbaa !56
  %15 = getelementptr inbounds nuw %struct.rb_execution_context_struct, ptr %14, i32 0, i32 5
  %16 = load i32, ptr %15, align 4, !tbaa !72
  store volatile i32 %16, ptr %7, align 4, !tbaa !7
  call void @llvm.lifetime.start.p0(i64 4, ptr %8) #22
  %17 = load i64, ptr %4, align 8, !tbaa !22
  %18 = call zeroext i1 @RB_IMMEDIATE_P(i64 noundef %17) #28
  br i1 %18, label %19, label %20

19:                                               ; preds = %2
  store i32 0, ptr %3, align 4
  store i32 1, ptr %9, align 4
  br label %84

20:                                               ; preds = %2
  %21 = load ptr, ptr %6, align 8, !tbaa !56
  %22 = getelementptr inbounds nuw %struct.rb_execution_context_struct, ptr %21, i32 0, i32 5
  %23 = load i32, ptr %22, align 4, !tbaa !72
  %24 = or i32 %23, 8
  store i32 %24, ptr %22, align 4, !tbaa !72
  br label %25

25:                                               ; preds = %20
  call void @llvm.lifetime.start.p0(i64 8, ptr %10) #22
  %26 = load ptr, ptr %6, align 8, !tbaa !56
  store ptr %26, ptr %10, align 8, !tbaa !56
  call void @llvm.lifetime.start.p0(i64 72, ptr %11) #22
  %27 = getelementptr inbounds nuw %struct.rb_vm_tag, ptr %11, i32 0, i32 4
  store i32 0, ptr %27, align 8, !tbaa !79
  %28 = getelementptr inbounds nuw %struct.rb_vm_tag, ptr %11, i32 0, i32 0
  store i64 36, ptr %28, align 8, !tbaa !81
  %29 = load ptr, ptr %10, align 8, !tbaa !56
  %30 = getelementptr inbounds nuw %struct.rb_execution_context_struct, ptr %29, i32 0, i32 3
  %31 = load ptr, ptr %30, align 8, !tbaa !82
  %32 = getelementptr inbounds nuw %struct.rb_vm_tag, ptr %11, i32 0, i32 3
  store ptr %31, ptr %32, align 8, !tbaa !83
  %33 = load ptr, ptr %10, align 8, !tbaa !56
  %34 = call i32 @rb_ec_vm_lock_rec(ptr noundef %33)
  %35 = getelementptr inbounds nuw %struct.rb_vm_tag, ptr %11, i32 0, i32 5
  store i32 %34, ptr %35, align 4, !tbaa !84
  %36 = getelementptr inbounds nuw %struct.rb_vm_tag, ptr %11, i32 0, i32 2
  call void @rb_vm_tag_jmpbuf_init(ptr noundef %36)
  %37 = getelementptr inbounds nuw %struct.rb_vm_tag, ptr %11, i32 0, i32 2
  %38 = getelementptr inbounds [5 x ptr], ptr %37, i64 0, i64 0
  %39 = call ptr @llvm.frameaddress.p0(i32 0)
  store ptr %39, ptr %38, align 8
  %40 = call ptr @llvm.stacksave.p0()
  %41 = getelementptr inbounds ptr, ptr %38, i64 2
  store ptr %40, ptr %41, align 8
  %42 = call i32 @llvm.eh.sjlj.setjmp(ptr %38)
  %43 = icmp ne i32 %42, 0
  %44 = xor i1 %43, true
  %45 = xor i1 %44, true
  %46 = zext i1 %45 to i32
  %47 = sext i32 %46 to i64
  %48 = call i64 @llvm.expect.i64(i64 %47, i64 0)
  %49 = icmp ne i64 %48, 0
  br i1 %49, label %50, label %53

50:                                               ; preds = %25
  %51 = load volatile ptr, ptr %10, align 8, !tbaa !56
  %52 = call i32 @rb_ec_tag_state(ptr noundef %51)
  br label %56

53:                                               ; preds = %25
  %54 = load ptr, ptr %10, align 8, !tbaa !56
  %55 = getelementptr inbounds nuw %struct.rb_execution_context_struct, ptr %54, i32 0, i32 3
  store ptr %11, ptr %55, align 8, !tbaa !82
  br label %56

56:                                               ; preds = %53, %50
  %57 = phi i32 [ %52, %50 ], [ 0, %53 ]
  store i32 %57, ptr %8, align 4, !tbaa !7
  %58 = icmp eq i32 %57, 0
  br i1 %58, label %59, label %66

59:                                               ; preds = %56
  call void @llvm.lifetime.start.p0(i64 8, ptr %12) #22
  %60 = load i32, ptr %5, align 4, !tbaa !7
  %61 = call i64 @rb_int2num_inline(i32 noundef %60)
  store i64 %61, ptr %12, align 8, !tbaa !22
  %62 = load i64, ptr %4, align 8, !tbaa !22
  %63 = load i64, ptr %12, align 8, !tbaa !22
  %64 = call i64 (i64, ...) @rb_ary_new_from_args(i64 noundef 1, i64 noundef %63)
  %65 = call i64 @rb_eval_cmd_kw(i64 noundef %62, i64 noundef %64, i32 noundef 0)
  call void @llvm.lifetime.end.p0(i64 8, ptr %12) #22
  br label %66

66:                                               ; preds = %59, %56
  %67 = getelementptr inbounds nuw %struct.rb_vm_tag, ptr %11, i32 0, i32 3
  %68 = load ptr, ptr %67, align 8, !tbaa !83
  %69 = load ptr, ptr %10, align 8, !tbaa !56
  %70 = getelementptr inbounds nuw %struct.rb_execution_context_struct, ptr %69, i32 0, i32 3
  store ptr %68, ptr %70, align 8, !tbaa !82
  %71 = getelementptr inbounds nuw %struct.rb_vm_tag, ptr %11, i32 0, i32 2
  call void @rb_vm_tag_jmpbuf_deinit(ptr noundef %71)
  call void @llvm.lifetime.end.p0(i64 72, ptr %11) #22
  call void @llvm.lifetime.end.p0(i64 8, ptr %10) #22
  br label %72

72:                                               ; preds = %66
  br label %73

73:                                               ; preds = %72
  %74 = call ptr @rb_current_execution_context(i1 noundef zeroext true)
  store ptr %74, ptr %6, align 8, !tbaa !56
  %75 = load volatile i32, ptr %7, align 4, !tbaa !7
  %76 = load ptr, ptr %6, align 8, !tbaa !56
  %77 = getelementptr inbounds nuw %struct.rb_execution_context_struct, ptr %76, i32 0, i32 5
  store i32 %75, ptr %77, align 4, !tbaa !72
  %78 = load i32, ptr %8, align 4, !tbaa !7
  %79 = icmp ne i32 %78, 0
  br i1 %79, label %80, label %83

80:                                               ; preds = %73
  %81 = load ptr, ptr %6, align 8, !tbaa !56
  %82 = load i32, ptr %8, align 4, !tbaa !7
  call void @rb_ec_tag_jump(ptr noundef %81, i32 noundef %82) #27
  unreachable

83:                                               ; preds = %73
  store i32 1, ptr %3, align 4
  store i32 1, ptr %9, align 4
  br label %84

84:                                               ; preds = %83, %19
  call void @llvm.lifetime.end.p0(i64 4, ptr %8) #22
  call void @llvm.lifetime.end.p0(i64 4, ptr %7) #22
  call void @llvm.lifetime.end.p0(i64 8, ptr %6) #22
  %85 = load i32, ptr %3, align 4
  ret i32 %85
}