; Function Attrs: nounwind sspstrong uwtable
define internal fastcc range(i32 0, 2) i32 @signal_exec(i64 noundef range(i64 1, 0) %0, i32 noundef %1) unnamed_addr #1 {
  %3 = alloca i32, align 4
  %4 = alloca ptr, align 8
  %5 = alloca %struct.rb_vm_tag, align 8
  %6 = tail call align 8 ptr @llvm.threadlocal.address.p0(ptr align 8 @ruby_current_ec)
  %7 = load ptr, ptr %6, align 8, !tbaa !23
  call void @llvm.lifetime.start.p0(i64 4, ptr nonnull %3)
  %8 = getelementptr inbounds nuw i8, ptr %7, i64 36
  %9 = load i32, ptr %8, align 4, !tbaa !75
  store volatile i32 %9, ptr %3, align 4, !tbaa !19
  %10 = and i64 %0, 7
  %.not22 = icmp eq i64 %10, 0
  br i1 %.not22, label %11, label %51

11:                                               ; preds = %2
  %12 = or i32 %9, 8
  store i32 %12, ptr %8, align 4, !tbaa !75
  call void @llvm.lifetime.start.p0(i64 8, ptr nonnull %4)
  store ptr %7, ptr %4, align 8, !tbaa !23
  call void @llvm.lifetime.start.p0(i64 72, ptr nonnull %5) #17
  %13 = getelementptr inbounds nuw i8, ptr %5, i64 64
  store i32 0, ptr %13, align 8, !tbaa !76
  store i64 36, ptr %5, align 8, !tbaa !78
  %14 = getelementptr inbounds nuw i8, ptr %7, i64 24
  %15 = load ptr, ptr %14, align 8, !tbaa !79
  %16 = getelementptr inbounds nuw i8, ptr %5, i64 56
  store ptr %15, ptr %16, align 8, !tbaa !80
  %17 = getelementptr i8, ptr %7, i64 48
  %.0.1.val = load ptr, ptr %17, align 8, !tbaa !25
  %.not.i.i = icmp eq ptr %.0.1.val, null
  br i1 %.not.i.i, label %rb_ec_ractor_ptr.exit.i, label %18

18:                                               ; preds = %11
  %19 = getelementptr inbounds nuw i8, ptr %.0.1.val, i64 32
  %20 = load ptr, ptr %19, align 8, !tbaa !81
  %21 = getelementptr inbounds nuw i8, ptr %20, i64 88
  %22 = getelementptr inbounds nuw i8, ptr %.0.1.val, i64 24
  %23 = load ptr, ptr %22, align 8, !tbaa !94
  br label %rb_ec_ractor_ptr.exit.i

rb_ec_ractor_ptr.exit.i:                          ; preds = %18, %11
  %.in.i = phi ptr [ %21, %18 ], [ inttoptr (i64 88 to ptr), %11 ]
  %.0.i2.i = phi ptr [ %20, %18 ], [ null, %11 ]
  %.0.i6.i = phi ptr [ %23, %18 ], [ null, %11 ]
  %24 = load ptr, ptr %.in.i, align 8, !tbaa !95
  %.not.i = icmp eq ptr %24, %.0.i6.i
  br i1 %.not.i, label %25, label %rb_ec_vm_lock_rec.exit

25:                                               ; preds = %rb_ec_ractor_ptr.exit.i
  %26 = getelementptr inbounds nuw i8, ptr %.0.i2.i, i64 96
  %27 = load i32, ptr %26, align 8, !tbaa !96
  br label %rb_ec_vm_lock_rec.exit

rb_ec_vm_lock_rec.exit:                           ; preds = %rb_ec_ractor_ptr.exit.i, %25
  %.0.i = phi i32 [ %27, %25 ], [ 0, %rb_ec_ractor_ptr.exit.i ]
  %28 = getelementptr inbounds nuw i8, ptr %5, i64 68
  store i32 %.0.i, ptr %28, align 4, !tbaa !97
  %29 = getelementptr inbounds nuw i8, ptr %5, i64 16
  %30 = tail call ptr @llvm.frameaddress.p0(i32 0)
  store ptr %30, ptr %29, align 8
  %31 = tail call ptr @llvm.stacksave.p0()
  %32 = getelementptr inbounds nuw i8, ptr %5, i64 32
  store ptr %31, ptr %32, align 8
  %33 = call i32 @llvm.eh.sjlj.setjmp(ptr nonnull %29)
  %.not = icmp eq i32 %33, 0
  br i1 %.not, label %.thread19, label %42, !prof !98

.thread19:                                        ; preds = %rb_ec_vm_lock_rec.exit
  store ptr %5, ptr %14, align 8, !tbaa !79
  %34 = sext i32 %1 to i64
  %35 = shl nsw i64 %34, 1
  %36 = or disjoint i64 %35, 1
  %37 = call i64 (i64, ...) @rb_ary_new_from_args(i64 noundef 1, i64 noundef %36) #17
  %38 = call i64 @rb_eval_cmd_kw(i64 noundef %0, i64 noundef %37, i32 noundef 0) #17
  %39 = load ptr, ptr %16, align 8, !tbaa !80
  store ptr %39, ptr %14, align 8, !tbaa !79
  call void @llvm.lifetime.end.p0(i64 72, ptr nonnull %5) #17
  call void @llvm.lifetime.end.p0(i64 8, ptr nonnull %4)
  %40 = load ptr, ptr %6, align 8, !tbaa !23
  %.0..0..0..0.721 = load volatile i32, ptr %3, align 4, !tbaa !19
  %41 = getelementptr inbounds nuw i8, ptr %40, i64 36
  store i32 %.0..0..0..0.721, ptr %41, align 4, !tbaa !75
  br label %51

42:                                               ; preds = %rb_ec_vm_lock_rec.exit
  %.0..0..0..0.2 = load volatile ptr, ptr %4, align 8, !tbaa !23
  %43 = call fastcc i32 @rb_ec_tag_state(ptr noundef %.0..0..0..0.2)
  %44 = load ptr, ptr %16, align 8, !tbaa !80
  %.0..0..0..0.4 = load ptr, ptr %4, align 8, !tbaa !23
  %45 = getelementptr inbounds nuw i8, ptr %.0..0..0..0.4, i64 24
  store ptr %44, ptr %45, align 8, !tbaa !79
  call void @llvm.lifetime.end.p0(i64 72, ptr nonnull %5) #17
  call void @llvm.lifetime.end.p0(i64 8, ptr nonnull %4)
  %46 = load ptr, ptr %6, align 8, !tbaa !23
  %.0..0..0..0.7 = load volatile i32, ptr %3, align 4, !tbaa !19
  %47 = getelementptr inbounds nuw i8, ptr %46, i64 36
  store i32 %.0..0..0..0.7, ptr %47, align 4, !tbaa !75
  %48 = getelementptr i8, ptr %46, i64 24
  %.val = load ptr, ptr %48, align 8, !tbaa !79
  %49 = getelementptr inbounds nuw i8, ptr %.val, i64 64
  store i32 %43, ptr %49, align 8, !tbaa !76
  %50 = getelementptr inbounds nuw i8, ptr %.val, i64 16
  call void @llvm.eh.sjlj.longjmp(ptr nonnull %50)
  unreachable

51:                                               ; preds = %.thread19, %2
  %.0 = phi i32 [ 0, %2 ], [ 1, %.thread19 ]
  call void @llvm.lifetime.end.p0(i64 4, ptr nonnull %3)
  ret i32 %.0
}